; ModuleID = 'source-C-CXX/14/2329.cpp'
source_filename = "source-C-CXX/14/2329.cpp"
target datalayout = "e-m:e-p270:32:32-p271:32:32-p272:64:64-i64:64-f80:128-n8:16:32:64-S128"
target triple = "x86_64-pc-linux-gnu"

%"class.std::ios_base::Init" = type { i8 }
%"class.std::basic_istream" = type { i32 (...)**, i64, %"class.std::basic_ios" }
%"class.std::basic_ios" = type { %"class.std::ios_base", %"class.std::basic_ostream"*, i8, i8, %"class.std::basic_streambuf"*, %"class.std::ctype"*, %"class.std::num_put"*, %"class.std::num_get"* }
%"class.std::ios_base" = type { i32 (...)**, i64, i64, i32, i32, i32, %"struct.std::ios_base::_Callback_list"*, %"struct.std::ios_base::_Words", [8 x %"struct.std::ios_base::_Words"], i32, %"struct.std::ios_base::_Words"*, %"class.std::locale" }
%"struct.std::ios_base::_Callback_list" = type { %"struct.std::ios_base::_Callback_list"*, void (i32, %"class.std::ios_base"*, i32)*, i32, i32 }
%"struct.std::ios_base::_Words" = type { i8*, i64 }
%"class.std::locale" = type { %"class.std::locale::_Impl"* }
%"class.std::locale::_Impl" = type { i32, %"class.std::locale::facet"**, i64, %"class.std::locale::facet"**, i8** }
%"class.std::locale::facet" = type <{ i32 (...)**, i32, [4 x i8] }>
%"class.std::basic_ostream" = type { i32 (...)**, %"class.std::basic_ios" }
%"class.std::basic_streambuf" = type { i32 (...)**, i8*, i8*, i8*, i8*, i8*, i8*, %"class.std::locale" }
%"class.std::ctype" = type <{ %"class.std::locale::facet.base", [4 x i8], %struct.__locale_struct*, i8, [7 x i8], i32*, i32*, i16*, i8, [256 x i8], [256 x i8], i8, [6 x i8] }>
%"class.std::locale::facet.base" = type <{ i32 (...)**, i32 }>
%struct.__locale_struct = type { [13 x %struct.__locale_data*], i16*, i32*, i32*, [13 x i8*] }
%struct.__locale_data = type opaque
%"class.std::num_put" = type { %"class.std::locale::facet.base", [4 x i8] }
%"class.std::num_get" = type { %"class.std::locale::facet.base", [4 x i8] }

@_ZStL8__ioinit = internal global %"class.std::ios_base::Init" zeroinitializer, align 1
@__dso_handle = external hidden global i8
@_ZSt3cin = external global %"class.std::basic_istream", align 8
@_ZSt4cout = external global %"class.std::basic_ostream", align 8
@llvm.global_ctors = appending global [1 x { i32, void ()*, i8* }] [{ i32, void ()*, i8* } { i32 65535, void ()* @_GLOBAL__sub_I_2329.cpp, i8* null }]

declare void @_ZNSt8ios_base4InitC1Ev(%"class.std::ios_base::Init"* nonnull align 1 dereferenceable(1)) unnamed_addr #0

; Function Attrs: nounwind
declare void @_ZNSt8ios_base4InitD1Ev(%"class.std::ios_base::Init"* nonnull align 1 dereferenceable(1)) unnamed_addr #1

; Function Attrs: nofree nounwind
declare i32 @__cxa_atexit(void (i8*)*, i8*, i8*) local_unnamed_addr #2

; Function Attrs: mustprogress norecurse sspstrong uwtable
define dso_local i32 @main() local_unnamed_addr #3 {
  %1 = alloca i32, align 4
  %2 = alloca [101 x [101 x i32]], align 16
  %3 = bitcast i32* %1 to i8*
  call void @llvm.lifetime.start.p0i8(i64 4, i8* nonnull %3) #6
  %4 = bitcast [101 x [101 x i32]]* %2 to i8*
  call void @llvm.lifetime.start.p0i8(i64 40804, i8* nonnull %4) #6
  %5 = call nonnull align 8 dereferenceable(16) %"class.std::basic_istream"* @_ZNSirsERi(%"class.std::basic_istream"* nonnull align 8 dereferenceable(16) @_ZSt3cin, i32* nonnull align 4 dereferenceable(4) %1)
  %6 = load i32, i32* %1, align 4, !tbaa !5
  %7 = icmp slt i32 %6, 1
  br i1 %7, label %20, label %8

8:                                                ; preds = %0, %40
  %9 = phi i32 [ %41, %40 ], [ %6, %0 ]
  %10 = phi i64 [ %45, %40 ], [ 1, %0 ]
  %11 = phi i32 [ %43, %40 ], [ undef, %0 ]
  %12 = phi i32 [ %42, %40 ], [ undef, %0 ]
  %13 = icmp slt i32 %9, 1
  br i1 %13, label %40, label %14

14:                                               ; preds = %8
  %15 = trunc i64 %10 to i32
  br label %25

16:                                               ; preds = %40
  %17 = icmp slt i32 %42, 1
  %18 = icmp slt i32 %43, 1
  %19 = select i1 %17, i1 true, i1 %18
  br i1 %19, label %64, label %20

20:                                               ; preds = %16, %0
  %21 = phi i32 [ undef, %0 ], [ %42, %16 ]
  %22 = phi i32 [ undef, %0 ], [ %43, %16 ]
  %23 = add nuw i32 %22, 1
  %24 = zext i32 %23 to i64
  br label %47

25:                                               ; preds = %14, %25
  %26 = phi i64 [ 1, %14 ], [ %36, %25 ]
  %27 = phi i32 [ %11, %14 ], [ %35, %25 ]
  %28 = phi i32 [ %12, %14 ], [ %33, %25 ]
  %29 = getelementptr inbounds [101 x [101 x i32]], [101 x [101 x i32]]* %2, i64 0, i64 %10, i64 %26
  %30 = call nonnull align 8 dereferenceable(16) %"class.std::basic_istream"* @_ZNSirsERi(%"class.std::basic_istream"* nonnull align 8 dereferenceable(16) @_ZSt3cin, i32* nonnull align 4 dereferenceable(4) %29)
  %31 = load i32, i32* %29, align 4, !tbaa !5
  %32 = icmp eq i32 %31, 0
  %33 = select i1 %32, i32 %15, i32 %28
  %34 = trunc i64 %26 to i32
  %35 = select i1 %32, i32 %34, i32 %27
  %36 = add nuw nsw i64 %26, 1
  %37 = load i32, i32* %1, align 4, !tbaa !5
  %38 = sext i32 %37 to i64
  %39 = icmp slt i64 %26, %38
  br i1 %39, label %25, label %40, !llvm.loop !9

40:                                               ; preds = %25, %8
  %41 = phi i32 [ %9, %8 ], [ %37, %25 ]
  %42 = phi i32 [ %12, %8 ], [ %33, %25 ]
  %43 = phi i32 [ %11, %8 ], [ %35, %25 ]
  %44 = sext i32 %41 to i64
  %45 = add nuw nsw i64 %10, 1
  %46 = icmp slt i64 %10, %44
  br i1 %46, label %8, label %16, !llvm.loop !11

47:                                               ; preds = %20, %58
  %48 = phi i32 [ %59, %58 ], [ 1, %20 ]
  %49 = zext i32 %48 to i64
  br label %50

50:                                               ; preds = %47, %55
  %51 = phi i64 [ 1, %47 ], [ %56, %55 ]
  %52 = getelementptr inbounds [101 x [101 x i32]], [101 x [101 x i32]]* %2, i64 0, i64 %49, i64 %51
  %53 = load i32, i32* %52, align 4, !tbaa !5
  %54 = icmp eq i32 %53, 0
  br i1 %54, label %61, label %55

55:                                               ; preds = %50
  %56 = add nuw nsw i64 %51, 1
  %57 = icmp eq i64 %56, %24
  br i1 %57, label %58, label %50, !llvm.loop !13

58:                                               ; preds = %55
  %59 = add nuw nsw i32 %48, 1
  %60 = icmp slt i32 %48, %21
  br i1 %60, label %47, label %64, !llvm.loop !14

61:                                               ; preds = %50
  %62 = trunc i64 %51 to i32
  %63 = xor i32 %62, -1
  br label %64

64:                                               ; preds = %58, %61, %16
  %65 = phi i32 [ %43, %16 ], [ %22, %61 ], [ %22, %58 ]
  %66 = phi i32 [ %42, %16 ], [ %21, %61 ], [ %21, %58 ]
  %67 = phi i32 [ undef, %16 ], [ %48, %61 ], [ undef, %58 ]
  %68 = phi i32 [ undef, %16 ], [ %63, %61 ], [ undef, %58 ]
  %69 = xor i32 %67, -1
  %70 = add i32 %66, %69
  %71 = add i32 %65, %68
  %72 = mul nsw i32 %71, %70
  %73 = call nonnull align 8 dereferenceable(8) %"class.std::basic_ostream"* @_ZNSolsEi(%"class.std::basic_ostream"* nonnull align 8 dereferenceable(8) @_ZSt4cout, i32 %72)
  call void @llvm.lifetime.end.p0i8(i64 40804, i8* nonnull %4) #6
  call void @llvm.lifetime.end.p0i8(i64 4, i8* nonnull %3) #6
  ret i32 0
}

; Function Attrs: argmemonly mustprogress nofree nosync nounwind willreturn
declare void @llvm.lifetime.start.p0i8(i64 immarg, i8* nocapture) #4

declare nonnull align 8 dereferenceable(16) %"class.std::basic_istream"* @_ZNSirsERi(%"class.std::basic_istream"* nonnull align 8 dereferenceable(16), i32* nonnull align 4 dereferenceable(4)) local_unnamed_addr #0

declare nonnull align 8 dereferenceable(8) %"class.std::basic_ostream"* @_ZNSolsEi(%"class.std::basic_ostream"* nonnull align 8 dereferenceable(8), i32) local_unnamed_addr #0

; Function Attrs: argmemonly mustprogress nofree nosync nounwind willreturn
declare void @llvm.lifetime.end.p0i8(i64 immarg, i8* nocapture) #4

; Function Attrs: sspstrong uwtable
define internal void @_GLOBAL__sub_I_2329.cpp() #5 section ".text.startup" {
  tail call void @_ZNSt8ios_base4InitC1Ev(%"class.std::ios_base::Init"* nonnull align 1 dereferenceable(1) @_ZStL8__ioinit)
  %1 = tail call i32 @__cxa_atexit(void (i8*)* bitcast (void (%"class.std::ios_base::Init"*)* @_ZNSt8ios_base4InitD1Ev to void (i8*)*), i8* getelementptr inbounds (%"class.std::ios_base::Init", %"class.std::ios_base::Init"* @_ZStL8__ioinit, i64 0, i32 0), i8* nonnull @__dso_handle) #6
  ret void
}


!llvm.module.flags = !{!0, !1, !2, !3}
!llvm.ident = !{!4}

!0 = !{i32 1, !"wchar_size", i32 4}
!1 = !{i32 7, !"PIC Level", i32 2}
!2 = !{i32 7, !"PIE Level", i32 2}
!3 = !{i32 7, !"uwtable", i32 1}
!4 = !{!"clang version 13.0.0"}
!5 = !{!6, !6, i64 0}
!6 = !{!"int", !7, i64 0}
!7 = !{!"omnipotent char", !8, i64 0}
!8 = !{!"Simple C++ TBAA"}
!9 = distinct !{!9, !10}
!10 = !{!"llvm.loop.mustprogress"}
!11 = distinct !{!11, !10, !12}
!12 = !{!"llvm.loop.unswitch.partial.disable"}
!13 = distinct !{!13, !10}
!14 = distinct !{!14, !10}
